target datalayout = "e-m:e-p270:32:32-p271:32:32-p272:64:64-i64:64-i128:128-f80:128-n8:16:32:64-S128"
target triple = "x86_64-pc-linux-gnu"

%"class.clang::DeclContext" = type { ptr, %union.anon.399, ptr, ptr }
%union.anon.399 = type { %"class.clang::DeclContext::RecordDeclBitfields" }
%"class.clang::DeclContext::RecordDeclBitfields" = type { i64 }

; Function Attrs: mustprogress nounwind uwtable
define linkonce_odr hidden noundef i32 @_ZNK5clang11DeclContext11getDeclKindEv(ptr noundef nonnull align 8 dereferenceable(32) %0) #0 comdat align 2 {
  %2 = alloca ptr, align 8
  store ptr %0, ptr %2, align 8
  %3 = load ptr, ptr %2, align 8
  %4 = getelementptr inbounds nuw %"class.clang::DeclContext", ptr %3, i32 0, i32 1
  %5 = load i16, ptr %4, align 8
  %6 = and i16 %5, 127
  %7 = zext i16 %6 to i64
  %8 = trunc i64 %7 to i32
  ret i32 %8
}

; Function Attrs: mustprogress nounwind uwtable
define linkonce_odr hidden noundef zeroext i1 @_ZN5clang19isExternallyVisibleENS_7LinkageE(i8 noundef zeroext %0) #0 comdat {
  %2 = alloca i1, align 1
  %3 = alloca i8, align 1
  store i8 %0, ptr %3, align 1
  %4 = load i8, ptr %3, align 1
  switch i8 %4, label %8 [
    i8 0, label %5
    i8 1, label %6
    i8 2, label %6
    i8 3, label %6
    i8 4, label %7
    i8 5, label %7
    i8 6, label %7
  ]

5:                                                ; preds = %1
  unreachable

6:                                                ; preds = %1, %1, %1
  store i1 false, ptr %2, align 1
  br label %9

7:                                                ; preds = %1, %1, %1
  store i1 true, ptr %2, align 1
  br label %9

8:                                                ; preds = %1
  unreachable

9:                                                ; preds = %7, %6
  %10 = load i1, ptr %2, align 1
  ret i1 %10
}

; Function Attrs: mustprogress nounwind uwtable
define linkonce_odr hidden noundef zeroext i1 @_ZNK5clang11DeclContext13isFileContextEv(ptr noundef nonnull align 8 dereferenceable(32) %0) #0 comdat align 2 {
  %2 = alloca ptr, align 8
  store ptr %0, ptr %2, align 8
  %3 = load ptr, ptr %2, align 8
  %4 = call noundef i32 @_ZNK5clang11DeclContext11getDeclKindEv(ptr noundef nonnull align 8 dereferenceable(32) %3)
  %5 = icmp eq i32 %4, 0
  br i1 %5, label %9, label %6

6:                                                ; preds = %1
  %7 = call noundef i32 @_ZNK5clang11DeclContext11getDeclKindEv(ptr noundef nonnull align 8 dereferenceable(32) %3)
  %8 = icmp eq i32 %7, 21
  br label %9

9:                                                ; preds = %6, %1
  %10 = phi i1 [ true, %1 ], [ %8, %6 ]
  ret i1 %10
}

; Function Attrs: mustprogress nounwind uwtable
define linkonce_odr hidden noundef zeroext i1 @_ZNK5clang9NamedDecl19isExternallyVisibleEv(ptr noundef nonnull align 8 dereferenceable(48) %0) #0 comdat align 2 {
  %2 = alloca ptr, align 8
  store ptr %0, ptr %2, align 8
  %3 = load ptr, ptr %2, align 8
  %4 = call noundef zeroext i8 @_ZNK5clang9NamedDecl18getLinkageInternalEv(ptr noundef nonnull align 8 dereferenceable(48) %3)
  %5 = call noundef zeroext i1 @_ZN5clang19isExternallyVisibleENS_7LinkageE(i8 noundef zeroext %4)
  ret i1 %5
}

; Function Attrs: mustprogress nounwind uwtable
define internal noundef zeroext i1 @_ZN12_GLOBAL__N_124ItaniumMangleContextImpl21isInternalLinkageDeclEPKN5clang9NamedDeclE(ptr noundef nonnull align 8 dereferenceable(193) %0, ptr noundef %1) #0 align 2 {
  %3 = alloca i1, align 1
  %4 = alloca ptr, align 8
  %5 = alloca ptr, align 8
  store ptr %0, ptr %4, align 8
  store ptr %1, ptr %5, align 8
  %6 = load ptr, ptr %4, align 8
  %7 = load ptr, ptr %5, align 8
  %8 = icmp ne ptr %7, null
  br i1 %8, label %9, label %24

9:                                                ; preds = %2
  %10 = load ptr, ptr %5, align 8
  %11 = call noundef zeroext i8 @_ZNK5clang9NamedDecl16getFormalLinkageEv(ptr noundef nonnull align 8 dereferenceable(48) %10)
  %12 = icmp eq i8 %11, 2
  br i1 %12, label %13, label %24

13:                                               ; preds = %9
  %14 = load ptr, ptr %5, align 8
  %15 = call noundef zeroext i1 @_ZNK5clang9NamedDecl19isExternallyVisibleEv(ptr noundef nonnull align 8 dereferenceable(48) %14)
  br i1 %15, label %24, label %16

16:                                               ; preds = %13
  %17 = load ptr, ptr %5, align 8
  %18 = call noundef ptr @_ZN12_GLOBAL__N_124ItaniumMangleContextImpl23getEffectiveDeclContextEPKN5clang4DeclE(ptr noundef nonnull align 8 dereferenceable(193) %6, ptr noundef %17)
  %19 = call noundef zeroext i1 @_ZNK5clang11DeclContext13isFileContextEv(ptr noundef nonnull align 8 dereferenceable(32) %18)
  br i1 %19, label %20, label %24

20:                                               ; preds = %16
  %21 = load ptr, ptr %5, align 8
  %22 = call noundef zeroext i1 @_ZNK5clang4Decl22isInAnonymousNamespaceEv(ptr noundef nonnull align 8 dereferenceable(33) %21)
  br i1 %22, label %24, label %23

23:                                               ; preds = %20
  store i1 true, ptr %3, align 1
  br label %25

24:                                               ; preds = %20, %16, %13, %9, %2
  store i1 false, ptr %3, align 1
  br label %25

25:                                               ; preds = %24, %23
  %26 = load i1, ptr %3, align 1
  ret i1 %26
}