; Function Attrs: mustprogress nounwind uwtable
define internal fastcc noundef zeroext i1 @_ZN12_GLOBAL__N_124ItaniumMangleContextImpl21isInternalLinkageDeclEPKN5clang9NamedDeclE(ptr nocapture noundef nonnull align 8 dereferenceable(193) %0, ptr noundef %1) unnamed_addr #0 align 2 {
  %.not = icmp eq ptr %1, null
  br i1 %.not, label %15, label %3

3:                                                ; preds = %2
  %4 = tail call noundef zeroext i8 @_ZNK5clang9NamedDecl16getFormalLinkageEv(ptr noundef nonnull align 8 dereferenceable(48) %1) #24
  %5 = icmp eq i8 %4, 2
  br i1 %5, label %6, label %15

6:                                                ; preds = %3
  %7 = tail call noundef zeroext i8 @_ZNK5clang9NamedDecl18getLinkageInternalEv(ptr noundef nonnull align 8 dereferenceable(48) %1) #24
  %.off.i.i = add i8 %7, -4
  %switch.i.i = icmp ult i8 %.off.i.i, 3
  br i1 %switch.i.i, label %15, label %8

8:                                                ; preds = %6
  %9 = tail call fastcc noundef ptr @_ZN12_GLOBAL__N_124ItaniumMangleContextImpl23getEffectiveDeclContextEPKN5clang4DeclE(ptr noundef nonnull align 8 dereferenceable(193) %0, ptr noundef nonnull %1)
  %10 = getelementptr inbounds nuw i8, ptr %9, i64 8
  %11 = load i16, ptr %10, align 8
  %12 = and i16 %11, 127
  switch i16 %12, label %15 [
    i16 21, label %13
    i16 0, label %13
  ]

13:                                               ; preds = %8, %8
  %14 = tail call noundef zeroext i1 @_ZNK5clang4Decl22isInAnonymousNamespaceEv(ptr noundef nonnull align 8 dereferenceable(33) %1) #24
  br i1 %14, label %15, label %16

15:                                               ; preds = %8, %13, %6, %3, %2
  br label %16

16:                                               ; preds = %13, %15
  %.0 = phi i1 [ false, %15 ], [ true, %13 ]
  ret i1 %.0
}